target datalayout = "e-m:e-p270:32:32-p271:32:32-p272:64:64-i64:64-i128:128-f80:128-n8:16:32:64-S128"
target triple = "x86_64-pc-linux-gnu"

; Function Attrs: nounwind uwtable
define internal ptr @pset_quoted_string(ptr noundef %0) #0 {
  %2 = alloca ptr, align 8
  %3 = alloca ptr, align 8
  %4 = alloca ptr, align 8
  store ptr %0, ptr %2, align 8
  call void @llvm.lifetime.start.p0(i64 8, ptr %3) #10
  %5 = load ptr, ptr %2, align 8
  %6 = call i64 @strlen(ptr noundef %5) #11
  %7 = mul i64 %6, 2
  %8 = add i64 %7, 3
  %9 = call ptr @pg_malloc(i64 noundef %8)
  store ptr %9, ptr %3, align 8
  call void @llvm.lifetime.start.p0(i64 8, ptr %4) #10
  %10 = load ptr, ptr %3, align 8
  store ptr %10, ptr %4, align 8
  %11 = load ptr, ptr %4, align 8
  %12 = getelementptr inbounds nuw i8, ptr %11, i32 1
  store ptr %12, ptr %4, align 8
  store i8 39, ptr %11, align 1
  br label %13

13:                                               ; preds = %44, %1
  %14 = load ptr, ptr %2, align 8
  %15 = load i8, ptr %14, align 1
  %16 = icmp ne i8 %15, 0
  br i1 %16, label %17, label %47

17:                                               ; preds = %13
  %18 = load ptr, ptr %2, align 8
  %19 = load i8, ptr %18, align 1
  %20 = sext i8 %19 to i32
  %21 = icmp eq i32 %20, 10
  br i1 %21, label %22, label %27

22:                                               ; preds = %17
  %23 = load ptr, ptr %4, align 8
  %24 = getelementptr inbounds nuw i8, ptr %23, i32 1
  store ptr %24, ptr %4, align 8
  store i8 92, ptr %23, align 1
  %25 = load ptr, ptr %4, align 8
  %26 = getelementptr inbounds nuw i8, ptr %25, i32 1
  store ptr %26, ptr %4, align 8
  store i8 110, ptr %25, align 1
  br label %43

27:                                               ; preds = %17
  %28 = load ptr, ptr %2, align 8
  %29 = load i8, ptr %28, align 1
  %30 = sext i8 %29 to i32
  %31 = icmp eq i32 %30, 39
  br i1 %31, label %32, label %37

32:                                               ; preds = %27
  %33 = load ptr, ptr %4, align 8
  %34 = getelementptr inbounds nuw i8, ptr %33, i32 1
  store ptr %34, ptr %4, align 8
  store i8 92, ptr %33, align 1
  %35 = load ptr, ptr %4, align 8
  %36 = getelementptr inbounds nuw i8, ptr %35, i32 1
  store ptr %36, ptr %4, align 8
  store i8 39, ptr %35, align 1
  br label %42

37:                                               ; preds = %27
  %38 = load ptr, ptr %2, align 8
  %39 = load i8, ptr %38, align 1
  %40 = load ptr, ptr %4, align 8
  %41 = getelementptr inbounds nuw i8, ptr %40, i32 1
  store ptr %41, ptr %4, align 8
  store i8 %39, ptr %40, align 1
  br label %42

42:                                               ; preds = %37, %32
  br label %43

43:                                               ; preds = %42, %22
  br label %44

44:                                               ; preds = %43
  %45 = load ptr, ptr %2, align 8
  %46 = getelementptr inbounds nuw i8, ptr %45, i32 1
  store ptr %46, ptr %2, align 8
  br label %13, !llvm.loop !30

47:                                               ; preds = %13
  %48 = load ptr, ptr %4, align 8
  %49 = getelementptr inbounds nuw i8, ptr %48, i32 1
  store ptr %49, ptr %4, align 8
  store i8 39, ptr %48, align 1
  %50 = load ptr, ptr %4, align 8
  store i8 0, ptr %50, align 1
  %51 = load ptr, ptr %3, align 8
  call void @llvm.lifetime.end.p0(i64 8, ptr %4) #10
  call void @llvm.lifetime.end.p0(i64 8, ptr %3) #10
  ret ptr %51
}