; Function Attrs: nounwind uwtable
define internal fastcc noundef ptr @pset_quoted_string(ptr noundef readonly captures(none) %0) unnamed_addr #0 {
  %2 = tail call i64 @strlen(ptr noundef nonnull dereferenceable(1) %0) #17
  %3 = shl i64 %2, 1
  %4 = add i64 %3, 3
  %5 = tail call ptr @pg_malloc(i64 noundef %4) #16
  %6 = getelementptr inbounds nuw i8, ptr %5, i64 1
  store i8 39, ptr %5, align 1
  br label %7

7:                                                ; preds = %15, %1
  %.016 = phi ptr [ %0, %1 ], [ %16, %15 ]
  %.0 = phi ptr [ %6, %1 ], [ %.1, %15 ]
  %8 = load i8, ptr %.016, align 1
  %9 = getelementptr inbounds nuw i8, ptr %.0, i64 1
  switch i8 %8, label %14 [
    i8 0, label %17
    i8 10, label %10
    i8 39, label %12
  ]

10:                                               ; preds = %7
  store i8 92, ptr %.0, align 1
  %11 = getelementptr inbounds nuw i8, ptr %.0, i64 2
  store i8 110, ptr %9, align 1
  br label %15

12:                                               ; preds = %7
  store i8 92, ptr %.0, align 1
  %13 = getelementptr inbounds nuw i8, ptr %.0, i64 2
  store i8 39, ptr %9, align 1
  br label %15

14:                                               ; preds = %7
  store i8 %8, ptr %.0, align 1
  br label %15

15:                                               ; preds = %10, %14, %12
  %.1 = phi ptr [ %11, %10 ], [ %13, %12 ], [ %9, %14 ]
  %16 = getelementptr inbounds nuw i8, ptr %.016, i64 1
  br label %7, !llvm.loop !22

17:                                               ; preds = %7
  store i8 39, ptr %.0, align 1
  store i8 0, ptr %9, align 1
  ret ptr %5
}